Certificate:
    Data:
        Version: 3 (0x2)
        Serial Number:
            c9:08:62:99:1d:05:e0:43
    Signature Algorithm: sha256WithRSAEncryption
        Issuer: C=IR, ST=TEHRAN, L=TEHRAN, O=SOROUSH, OU=SOROUSH, CN=SOROUSH.IR
        Validity
            Not Before: Dec 13 11:27:28 2017 GMT
            Not After : Dec 13 11:27:28 2019 GMT
        Subject: C=IR, ST=TEHRAN, L=TEHRAN, O=SOROUSH, OU=SOROUSH, CN=SOROUSH.IR
        Subject Public Key Info:
            Public Key Algorithm: rsaEncryption
                Public-Key: (2048 bit)
                Modulus:
                    00:d3:56:30:58:32:19:1b:67:9e:a4:9e:be:cf:bd:
                    e0:9c:46:b8:13:39:08:90:4a:cb:a6:82:cb:51:ca:
                    98:82:5b:10:77:6e:ce:0e:f4:1b:60:5a:52:bc:1f:
                    b8:18:a0:b4:f6:22:72:b0:ff:a5:e6:d4:29:1e:c3:
                    0a:a9:a9:6c:7c:55:62:e9:47:46:2f:f8:0e:40:2f:
                    c4:73:bd:0d:9d:e5:77:97:da:15:e9:12:19:df:61:
                    16:b8:51:33:b2:69:fc:1f:6a:29:a9:19:bc:32:ca:
                    73:14:7f:32:21:bb:a8:c7:0d:64:92:9c:c8:46:04:
                    e6:d1:af:17:ff:3a:5c:64:67:57:5f:55:b7:02:3c:
                    4b:73:2b:d8:6d:ab:23:b5:17:a7:0c:77:0b:24:ff:
                    e2:8b:66:3d:92:3a:0f:45:4c:eb:43:e7:6f:95:41:
                    88:36:84:1e:17:b7:d1:9e:1c:21:53:a6:ba:9b:f7:
                    a4:ac:76:54:9b:5a:41:b4:fb:05:b2:22:c4:3c:48:
                    e3:c0:df:5f:6f:d7:05:5d:12:19:a5:33:9e:27:be:
                    de:75:bb:68:16:ab:eb:ee:fd:63:7f:77:c1:00:f5:
                    65:fb:4a:22:f8:c0:9b:b8:94:46:b3:16:80:49:2b:
                    41:f5:41:f5:25:d9:29:64:bc:83:0f:b5:52:33:66:
                    30:2d
                Exponent: 65537 (0x10001)
        X509v3 extensions:
            X509v3 Subject Key Identifier: 
                55:DE:F9:21:F3:24:3D:63:8B:2E:9E:EF:E1:7C:5B:8D:07:17:3A:52
            X509v3 Authority Key Identifier: 
                keyid:55:DE:F9:21:F3:24:3D:63:8B:2E:9E:EF:E1:7C:5B:8D:07:17:3A:52

            X509v3 Basic Constraints: 
                CA:TRUE
    Signature Algorithm: sha256WithRSAEncryption
         14:fc:e0:52:0b:cb:27:53:bd:f6:cf:33:ed:46:2f:38:5b:a2:
         91:ff:8b:0a:4f:7c:c8:e0:b3:90:b3:53:13:42:a2:27:52:7c:
         72:10:8a:90:64:03:eb:09:db:89:d9:83:0d:37:6b:c8:73:9a:
         45:4c:23:b3:b5:7b:51:83:ee:4f:1a:25:32:6e:94:ff:43:f5:
         58:6c:46:4b:bb:fb:cf:7a:eb:13:2c:83:f1:2c:e0:d0:ff:b2:
         af:98:6b:7b:95:59:96:c7:25:15:6a:d8:83:b3:cf:72:90:57:
         04:4b:65:2a:31:89:3b:b0:f3:5c:06:60:84:dc:d9:76:bd:89:
         cf:fb:76:dd:aa:a9:a3:10:3a:53:57:ab:ef:43:e9:95:e3:c5:
         18:4d:98:11:1a:18:8d:bf:a1:a2:a4:cf:bb:d7:4f:cd:59:bc:
         e6:42:5e:94:c1:6b:4e:46:d0:8d:dd:90:85:ac:3e:36:60:ae:
         f4:53:68:c4:ac:76:a7:44:59:ba:5a:a1:a6:62:b2:44:e4:6c:
         be:d0:e6:51:5d:b1:4d:15:a0:2a:33:00:83:2b:7d:4f:bb:82:
         76:9c:56:a0:95:04:9f:e6:ae:b4:10:49:1d:37:3d:2a:4b:c2:
         17:10:51:14:48:3f:4d:27:cd:f5:8c:10:1a:84:3e:92:c2:9c:
         d9:17:85:e0
-----BEGIN CERTIFICATE-----
MIIDozCCAougAwIBAgIJAMkIYpkdBeBDMA0GCSqGSIb3DQEBCwUAMGgxCzAJBgNV
BAYTAklSMQ8wDQYDVQQIDAZURUhSQU4xDzANBgNVBAcMBlRFSFJBTjEQMA4GA1UE
CgwHU09ST1VTSDEQMA4GA1UECwwHU09ST1VTSDETMBEGA1UEAwwKU09ST1VTSC5J
UjAeFw0xNzEyMTMxMTI3MjhaFw0xOTEyMTMxMTI3MjhaMGgxCzAJBgNVBAYTAklS
MQ8wDQYDVQQIDAZURUhSQU4xDzANBgNVBAcMBlRFSFJBTjEQMA4GA1UECgwHU09S
T1VTSDEQMA4GA1UECwwHU09ST1VTSDETMBEGA1UEAwwKU09ST1VTSC5JUjCCASIw
DQYJKoZIhvcNAQEBBQADggEPADCCAQoCggEBANNWMFgyGRtnnqSevs+94JxGuBM5
CJBKy6aCy1HKmIJbEHduzg70G2BaUrwfuBigtPYicrD/pebUKR7DCqmpbHxVYulH
Ri/4DkAvxHO9DZ3ld5faFekSGd9hFrhRM7Jp/B9qKakZvDLKcxR/MiG7qMcNZJKc
yEYE5tGvF/86XGRnV19VtwI8S3Mr2G2rI7UXpwx3CyT/4otmPZI6D0VM60Pnb5VB
iDaEHhe30Z4cIVOmupv3pKx2VJtaQbT7BbIixDxI48DfX2/XBV0SGaUznie+3nW7
aBar6+79Y393wQD1ZftKIvjAm7iURrMWgEkrQfVB9SXZKWS8gw+1UjNmMC0CAwEA
AaNQME4wHQYDVR0OBBYEFFXe+SHzJD1jiy6e7+F8W40HFzpSMB8GA1UdIwQYMBaA
FFXe+SHzJD1jiy6e7+F8W40HFzpSMAwGA1UdEwQFMAMBAf8wDQYJKoZIhvcNAQEL
BQADggEBABT84FILyydTvfbPM+1GLzhbopH/iwpPfMjgs5CzUxNCoidSfHIQipBk
A+sJ24nZgw03a8hzmkVMI7O1e1GD7k8aJTJulP9D9VhsRku7+8966xMsg/Es4ND/
sq+Ya3uVWZbHJRVq2IOzz3KQVwRLZSoxiTuw81wGYITc2Xa9ic/7dt2qqaMQOlNX
q+9D6ZXjxRhNmBEaGI2/oaKkz7vXT81ZvOZCXpTBa05G0I3dkIWsPjZgrvRTaMSs
dqdEWbpaoaZiskTkbL7Q5lFdsU0VoCozAIMrfU+7gnacVqCVBJ/mrrQQSR03PSpL
whcQURRIP00nzfWMEBqEPpLCnNkXheA=
-----END CERTIFICATE-----
